target datalayout = "e-m:e-p270:32:32-p271:32:32-p272:64:64-i64:64-i128:128-f80:128-n8:16:32:64-S128"
target triple = "x86_64-pc-linux-gnu"

; Function Attrs: nounwind uwtable
define internal i32 @decode_int_internal(ptr noundef %0, ptr noundef %1, i32 noundef %2) #0 {
  %4 = alloca i32, align 4
  %5 = alloca ptr, align 8
  %6 = alloca ptr, align 8
  %7 = alloca i32, align 4
  %8 = alloca i32, align 4
  %9 = alloca ptr, align 8
  %10 = alloca i64, align 8
  %11 = alloca i32, align 4
  %12 = alloca i32, align 4
  store ptr %0, ptr %5, align 8
  store ptr %1, ptr %6, align 8
  store i32 %2, ptr %7, align 4
  call void @llvm.lifetime.start.p0(i64 4, ptr %8) #6
  store i32 0, ptr %8, align 4
  br label %13

13:                                               ; preds = %3
  call void @llvm.lifetime.start.p0(i64 8, ptr %9) #6
  call void @llvm.lifetime.start.p0(i64 8, ptr %10) #6
  %14 = load ptr, ptr %6, align 8
  %15 = call i64 @evbuffer_get_length(ptr noundef %14)
  %16 = load i32, ptr %7, align 4
  %17 = sext i32 %16 to i64
  %18 = sub i64 %15, %17
  store i64 %18, ptr %10, align 8
  call void @llvm.lifetime.start.p0(i64 4, ptr %11) #6
  store i32 0, ptr %11, align 4
  %19 = load i64, ptr %10, align 8
  %20 = icmp sle i64 %19, 0
  br i1 %20, label %21, label %22

21:                                               ; preds = %13
  store i32 -1, ptr %4, align 4
  store i32 1, ptr %12, align 4
  br label %110

22:                                               ; preds = %13
  %23 = load ptr, ptr %6, align 8
  %24 = load i32, ptr %7, align 4
  %25 = add nsw i32 %24, 1
  %26 = sext i32 %25 to i64
  %27 = call ptr @evbuffer_pullup(ptr noundef %23, i64 noundef %26)
  %28 = load i32, ptr %7, align 4
  %29 = sext i32 %28 to i64
  %30 = getelementptr inbounds i8, ptr %27, i64 %29
  store ptr %30, ptr %9, align 8
  %31 = load ptr, ptr %9, align 8
  %32 = icmp ne ptr %31, null
  br i1 %32, label %34, label %33

33:                                               ; preds = %22
  store i32 -1, ptr %4, align 4
  store i32 1, ptr %12, align 4
  br label %110

34:                                               ; preds = %22
  %35 = load ptr, ptr %9, align 8
  %36 = getelementptr inbounds i8, ptr %35, i64 0
  %37 = load i8, ptr %36, align 1
  %38 = zext i8 %37 to i32
  %39 = and i32 %38, 240
  %40 = ashr i32 %39, 4
  %41 = add nsw i32 %40, 1
  store i32 %41, ptr %11, align 4
  %42 = load i32, ptr %11, align 4
  %43 = icmp sgt i32 %42, 8
  br i1 %43, label %51, label %44

44:                                               ; preds = %34
  %45 = load i32, ptr %11, align 4
  %46 = ashr i32 %45, 1
  %47 = add nsw i32 %46, 1
  %48 = sext i32 %47 to i64
  %49 = load i64, ptr %10, align 8
  %50 = icmp sgt i64 %48, %49
  br i1 %50, label %51, label %52

51:                                               ; preds = %44, %34
  store i32 -1, ptr %4, align 4
  store i32 1, ptr %12, align 4
  br label %110

52:                                               ; preds = %44
  %53 = load i32, ptr %11, align 4
  %54 = ashr i32 %53, 1
  %55 = add nsw i32 %54, 1
  %56 = sext i32 %55 to i64
  store i64 %56, ptr %10, align 8
  %57 = load ptr, ptr %6, align 8
  %58 = load i32, ptr %7, align 4
  %59 = sext i32 %58 to i64
  %60 = load i64, ptr %10, align 8
  %61 = add nsw i64 %59, %60
  %62 = call ptr @evbuffer_pullup(ptr noundef %57, i64 noundef %61)
  %63 = load i32, ptr %7, align 4
  %64 = sext i32 %63 to i64
  %65 = getelementptr inbounds i8, ptr %62, i64 %64
  store ptr %65, ptr %9, align 8
  %66 = load ptr, ptr %9, align 8
  %67 = icmp ne ptr %66, null
  br i1 %67, label %69, label %68

68:                                               ; preds = %52
  store i32 -1, ptr %4, align 4
  store i32 1, ptr %12, align 4
  br label %110

69:                                               ; preds = %52
  br label %70

70:                                               ; preds = %102, %69
  %71 = load i32, ptr %11, align 4
  %72 = icmp sgt i32 %71, 0
  br i1 %72, label %73, label %105

73:                                               ; preds = %70
  %74 = load i32, ptr %8, align 4
  %75 = shl i32 %74, 4
  store i32 %75, ptr %8, align 4
  %76 = load i32, ptr %11, align 4
  %77 = and i32 %76, 1
  %78 = icmp ne i32 %77, 0
  br i1 %78, label %79, label %90

79:                                               ; preds = %73
  %80 = load ptr, ptr %9, align 8
  %81 = load i32, ptr %11, align 4
  %82 = ashr i32 %81, 1
  %83 = sext i32 %82 to i64
  %84 = getelementptr inbounds i8, ptr %80, i64 %83
  %85 = load i8, ptr %84, align 1
  %86 = zext i8 %85 to i32
  %87 = and i32 %86, 15
  %88 = load i32, ptr %8, align 4
  %89 = or i32 %88, %87
  store i32 %89, ptr %8, align 4
  br label %102

90:                                               ; preds = %73
  %91 = load ptr, ptr %9, align 8
  %92 = load i32, ptr %11, align 4
  %93 = ashr i32 %92, 1
  %94 = sext i32 %93 to i64
  %95 = getelementptr inbounds i8, ptr %91, i64 %94
  %96 = load i8, ptr %95, align 1
  %97 = zext i8 %96 to i32
  %98 = and i32 %97, 240
  %99 = ashr i32 %98, 4
  %100 = load i32, ptr %8, align 4
  %101 = or i32 %100, %99
  store i32 %101, ptr %8, align 4
  br label %102

102:                                              ; preds = %90, %79
  %103 = load i32, ptr %11, align 4
  %104 = add nsw i32 %103, -1
  store i32 %104, ptr %11, align 4
  br label %70, !llvm.loop !8

105:                                              ; preds = %70
  %106 = load i32, ptr %8, align 4
  %107 = load ptr, ptr %5, align 8
  store i32 %106, ptr %107, align 4
  %108 = load i64, ptr %10, align 8
  %109 = trunc i64 %108 to i32
  store i32 %109, ptr %4, align 4
  store i32 1, ptr %12, align 4
  br label %110

110:                                              ; preds = %105, %68, %51, %33, %21
  call void @llvm.lifetime.end.p0(i64 4, ptr %11) #6
  call void @llvm.lifetime.end.p0(i64 8, ptr %10) #6
  call void @llvm.lifetime.end.p0(i64 8, ptr %9) #6
  br label %113

111:                                              ; No predecessors!
  br label %112

112:                                              ; preds = %111
  store i32 0, ptr %12, align 4
  br label %113

113:                                              ; preds = %112, %110
  call void @llvm.lifetime.end.p0(i64 4, ptr %8) #6
  %114 = load i32, ptr %12, align 4
  switch i32 %114, label %117 [
    i32 0, label %115
    i32 1, label %115
  ]

115:                                              ; preds = %113, %113
  %116 = load i32, ptr %4, align 4
  ret i32 %116

117:                                              ; preds = %113
  unreachable
}

; Function Attrs: nounwind uwtable
define internal i32 @decode_tag_internal(ptr noundef %0, ptr noundef %1, i32 noundef %2) #0 {
  %4 = alloca i32, align 4
  %5 = alloca ptr, align 8
  %6 = alloca ptr, align 8
  %7 = alloca i32, align 4
  %8 = alloca i32, align 4
  %9 = alloca i64, align 8
  %10 = alloca ptr, align 8
  %11 = alloca i64, align 8
  %12 = alloca i32, align 4
  %13 = alloca i32, align 4
  %14 = alloca i32, align 4
  %15 = alloca i8, align 1
  store ptr %0, ptr %5, align 8
  store ptr %1, ptr %6, align 8
  store i32 %2, ptr %7, align 4
  call void @llvm.lifetime.start.p0(i64 4, ptr %8) #6
  store i32 0, ptr %8, align 4
  call void @llvm.lifetime.start.p0(i64 8, ptr %9) #6
  %16 = load ptr, ptr %6, align 8
  %17 = call i64 @evbuffer_get_length(ptr noundef %16)
  store i64 %17, ptr %9, align 8
  call void @llvm.lifetime.start.p0(i64 8, ptr %10) #6
  call void @llvm.lifetime.start.p0(i64 8, ptr %11) #6
  store i64 0, ptr %11, align 8
  call void @llvm.lifetime.start.p0(i64 4, ptr %12) #6
  store i32 0, ptr %12, align 4
  call void @llvm.lifetime.start.p0(i64 4, ptr %13) #6
  store i32 0, ptr %13, align 4
  %18 = load ptr, ptr %6, align 8
  %19 = load i64, ptr %9, align 8
  %20 = icmp ult i64 %19, 5
  br i1 %20, label %21, label %23

21:                                               ; preds = %3
  %22 = load i64, ptr %9, align 8
  br label %24

23:                                               ; preds = %3
  br label %24

24:                                               ; preds = %23, %21
  %25 = phi i64 [ %22, %21 ], [ 5, %23 ]
  %26 = call ptr @evbuffer_pullup(ptr noundef %18, i64 noundef %25)
  store ptr %26, ptr %10, align 8
  %27 = load ptr, ptr %10, align 8
  %28 = icmp ne ptr %27, null
  br i1 %28, label %30, label %29

29:                                               ; preds = %24
  store i32 -1, ptr %4, align 4
  store i32 1, ptr %14, align 4
  br label %98

30:                                               ; preds = %24
  br label %31

31:                                               ; preds = %71, %30
  %32 = load i64, ptr %11, align 8
  %33 = add i64 %32, 1
  store i64 %33, ptr %11, align 8
  %34 = load i64, ptr %9, align 8
  %35 = icmp ult i64 %32, %34
  br i1 %35, label %36, label %72

36:                                               ; preds = %31
  call void @llvm.lifetime.start.p0(i64 1, ptr %15) #6
  %37 = load ptr, ptr %10, align 8
  %38 = getelementptr inbounds nuw i8, ptr %37, i32 1
  store ptr %38, ptr %10, align 8
  %39 = load i8, ptr %37, align 1
  store i8 %39, ptr %15, align 1
  %40 = load i32, ptr %12, align 4
  %41 = icmp sge i32 %40, 28
  br i1 %41, label %42, label %53

42:                                               ; preds = %36
  %43 = load i32, ptr %12, align 4
  %44 = icmp sgt i32 %43, 28
  br i1 %44, label %45, label %46

45:                                               ; preds = %42
  store i32 -1, ptr %4, align 4
  store i32 1, ptr %14, align 4
  br label %69

46:                                               ; preds = %42
  %47 = load i8, ptr %15, align 1
  %48 = zext i8 %47 to i32
  %49 = and i32 %48, 127
  %50 = icmp sgt i32 %49, 15
  br i1 %50, label %51, label %52

51:                                               ; preds = %46
  store i32 -1, ptr %4, align 4
  store i32 1, ptr %14, align 4
  br label %69

52:                                               ; preds = %46
  br label %53

53:                                               ; preds = %52, %36
  %54 = load i8, ptr %15, align 1
  %55 = zext i8 %54 to i32
  %56 = and i32 %55, 127
  %57 = load i32, ptr %12, align 4
  %58 = shl i32 %56, %57
  %59 = load i32, ptr %8, align 4
  %60 = or i32 %59, %58
  store i32 %60, ptr %8, align 4
  %61 = load i32, ptr %12, align 4
  %62 = add nsw i32 %61, 7
  store i32 %62, ptr %12, align 4
  %63 = load i8, ptr %15, align 1
  %64 = zext i8 %63 to i32
  %65 = and i32 %64, 128
  %66 = icmp ne i32 %65, 0
  br i1 %66, label %68, label %67

67:                                               ; preds = %53
  store i32 1, ptr %13, align 4
  store i32 3, ptr %14, align 4
  br label %69

68:                                               ; preds = %53
  store i32 0, ptr %14, align 4
  br label %69

69:                                               ; preds = %68, %67, %51, %45
  call void @llvm.lifetime.end.p0(i64 1, ptr %15) #6
  %70 = load i32, ptr %14, align 4
  switch i32 %70, label %98 [
    i32 0, label %71
    i32 3, label %72
  ]

71:                                               ; preds = %69
  br label %31, !llvm.loop !7

72:                                               ; preds = %69, %31
  %73 = load i32, ptr %13, align 4
  %74 = icmp ne i32 %73, 0
  br i1 %74, label %76, label %75

75:                                               ; preds = %72
  store i32 -1, ptr %4, align 4
  store i32 1, ptr %14, align 4
  br label %98

76:                                               ; preds = %72
  %77 = load i32, ptr %7, align 4
  %78 = icmp ne i32 %77, 0
  br i1 %78, label %79, label %83

79:                                               ; preds = %76
  %80 = load ptr, ptr %6, align 8
  %81 = load i64, ptr %11, align 8
  %82 = call i32 @evbuffer_drain(ptr noundef %80, i64 noundef %81)
  br label %83

83:                                               ; preds = %79, %76
  %84 = load ptr, ptr %5, align 8
  %85 = icmp ne ptr %84, null
  br i1 %85, label %86, label %89

86:                                               ; preds = %83
  %87 = load i32, ptr %8, align 4
  %88 = load ptr, ptr %5, align 8
  store i32 %87, ptr %88, align 4
  br label %89

89:                                               ; preds = %86, %83
  %90 = load i64, ptr %11, align 8
  %91 = icmp ugt i64 %90, 2147483647
  br i1 %91, label %92, label %93

92:                                               ; preds = %89
  br label %96

93:                                               ; preds = %89
  %94 = load i64, ptr %11, align 8
  %95 = trunc i64 %94 to i32
  br label %96

96:                                               ; preds = %93, %92
  %97 = phi i32 [ 2147483647, %92 ], [ %95, %93 ]
  store i32 %97, ptr %4, align 4
  store i32 1, ptr %14, align 4
  br label %98

98:                                               ; preds = %96, %75, %69, %29
  call void @llvm.lifetime.end.p0(i64 4, ptr %13) #6
  call void @llvm.lifetime.end.p0(i64 4, ptr %12) #6
  call void @llvm.lifetime.end.p0(i64 8, ptr %11) #6
  call void @llvm.lifetime.end.p0(i64 8, ptr %10) #6
  call void @llvm.lifetime.end.p0(i64 8, ptr %9) #6
  call void @llvm.lifetime.end.p0(i64 4, ptr %8) #6
  %99 = load i32, ptr %4, align 4
  ret i32 %99
}

; Function Attrs: nounwind uwtable
define i32 @evtag_unmarshal_int(ptr noundef %0, i32 noundef %1, ptr noundef %2) #0 {
  %4 = alloca i32, align 4
  %5 = alloca ptr, align 8
  %6 = alloca i32, align 4
  %7 = alloca ptr, align 8
  %8 = alloca i32, align 4
  %9 = alloca i32, align 4
  %10 = alloca i32, align 4
  %11 = alloca i32, align 4
  store ptr %0, ptr %5, align 8
  store i32 %1, ptr %6, align 4
  store ptr %2, ptr %7, align 8
  call void @llvm.lifetime.start.p0(i64 4, ptr %8) #6
  call void @llvm.lifetime.start.p0(i64 4, ptr %9) #6
  call void @llvm.lifetime.start.p0(i64 4, ptr %10) #6
  %12 = load ptr, ptr %5, align 8
  %13 = call i32 @decode_tag_internal(ptr noundef %8, ptr noundef %12, i32 noundef 1)
  %14 = icmp eq i32 %13, -1
  br i1 %14, label %15, label %16

15:                                               ; preds = %3
  store i32 -1, ptr %4, align 4
  store i32 1, ptr %11, align 4
  br label %52

16:                                               ; preds = %3
  %17 = load i32, ptr %6, align 4
  %18 = load i32, ptr %8, align 4
  %19 = icmp ne i32 %17, %18
  br i1 %19, label %20, label %21

20:                                               ; preds = %16
  store i32 -1, ptr %4, align 4
  store i32 1, ptr %11, align 4
  br label %52

21:                                               ; preds = %16
  %22 = load ptr, ptr %5, align 8
  %23 = call i32 @evtag_decode_int(ptr noundef %9, ptr noundef %22)
  %24 = icmp eq i32 %23, -1
  br i1 %24, label %25, label %26

25:                                               ; preds = %21
  store i32 -1, ptr %4, align 4
  store i32 1, ptr %11, align 4
  br label %52

26:                                               ; preds = %21
  %27 = load ptr, ptr %5, align 8
  %28 = call i64 @evbuffer_get_length(ptr noundef %27)
  %29 = load i32, ptr %9, align 4
  %30 = zext i32 %29 to i64
  %31 = icmp ult i64 %28, %30
  br i1 %31, label %32, label %33

32:                                               ; preds = %26
  store i32 -1, ptr %4, align 4
  store i32 1, ptr %11, align 4
  br label %52

33:                                               ; preds = %26
  %34 = load ptr, ptr %7, align 8
  %35 = load ptr, ptr %5, align 8
  %36 = call i32 @decode_int_internal(ptr noundef %34, ptr noundef %35, i32 noundef 0)
  store i32 %36, ptr %10, align 4
  %37 = load ptr, ptr %5, align 8
  %38 = load i32, ptr %9, align 4
  %39 = zext i32 %38 to i64
  %40 = call i32 @evbuffer_drain(ptr noundef %37, i64 noundef %39)
  %41 = load i32, ptr %10, align 4
  %42 = icmp slt i32 %41, 0
  br i1 %42, label %49, label %43

43:                                               ; preds = %33
  %44 = load i32, ptr %10, align 4
  %45 = sext i32 %44 to i64
  %46 = load i32, ptr %9, align 4
  %47 = zext i32 %46 to i64
  %48 = icmp ugt i64 %45, %47
  br i1 %48, label %49, label %50

49:                                               ; preds = %43, %33
  store i32 -1, ptr %4, align 4
  store i32 1, ptr %11, align 4
  br label %52

50:                                               ; preds = %43
  %51 = load i32, ptr %10, align 4
  store i32 %51, ptr %4, align 4
  store i32 1, ptr %11, align 4
  br label %52

52:                                               ; preds = %50, %49, %32, %25, %20, %15
  call void @llvm.lifetime.end.p0(i64 4, ptr %10) #6
  call void @llvm.lifetime.end.p0(i64 4, ptr %9) #6
  call void @llvm.lifetime.end.p0(i64 4, ptr %8) #6
  %53 = load i32, ptr %4, align 4
  ret i32 %53
}